target datalayout = "e-m:e-p270:32:32-p271:32:32-p272:64:64-i64:64-i128:128-f80:128-n8:16:32:64-S128"
target triple = "x86_64-pc-linux-gnu"

%union.av_intfloat32 = type { i32 }

; Function Attrs: nounwind uwtable
define internal void @sbr_qmf_deint_neg_c(ptr noundef %0, ptr noundef %1) #1 {
  %3 = alloca ptr, align 8
  %4 = alloca ptr, align 8
  %5 = alloca ptr, align 8
  %6 = alloca ptr, align 8
  %7 = alloca i32, align 4
  store ptr %0, ptr %3, align 8, !tbaa !21
  store ptr %1, ptr %4, align 8, !tbaa !21
  call void @llvm.lifetime.start.p0(i64 8, ptr %5) #5
  %8 = load ptr, ptr %4, align 8, !tbaa !21
  store ptr %8, ptr %5, align 8, !tbaa !30
  call void @llvm.lifetime.start.p0(i64 8, ptr %6) #5
  %9 = load ptr, ptr %3, align 8, !tbaa !21
  store ptr %9, ptr %6, align 8, !tbaa !30
  call void @llvm.lifetime.start.p0(i64 4, ptr %7) #5
  store i32 0, ptr %7, align 4, !tbaa !23
  br label %10

10:                                               ; preds = %39, %2
  %11 = load i32, ptr %7, align 4, !tbaa !23
  %12 = icmp slt i32 %11, 32
  br i1 %12, label %13, label %42

13:                                               ; preds = %10
  %14 = load ptr, ptr %5, align 8, !tbaa !30
  %15 = load i32, ptr %7, align 4, !tbaa !23
  %16 = mul nsw i32 2, %15
  %17 = sub nsw i32 63, %16
  %18 = sext i32 %17 to i64
  %19 = getelementptr inbounds %union.av_intfloat32, ptr %14, i64 %18
  %20 = load i32, ptr %19, align 4, !tbaa !32
  %21 = load ptr, ptr %6, align 8, !tbaa !30
  %22 = load i32, ptr %7, align 4, !tbaa !23
  %23 = sext i32 %22 to i64
  %24 = getelementptr inbounds %union.av_intfloat32, ptr %21, i64 %23
  store i32 %20, ptr %24, align 4, !tbaa !32
  %25 = load ptr, ptr %5, align 8, !tbaa !30
  %26 = load i32, ptr %7, align 4, !tbaa !23
  %27 = mul nsw i32 2, %26
  %28 = sub nsw i32 63, %27
  %29 = sub nsw i32 %28, 1
  %30 = sext i32 %29 to i64
  %31 = getelementptr inbounds %union.av_intfloat32, ptr %25, i64 %30
  %32 = load i32, ptr %31, align 4, !tbaa !32
  %33 = xor i32 %32, -2147483648
  %34 = load ptr, ptr %6, align 8, !tbaa !30
  %35 = load i32, ptr %7, align 4, !tbaa !23
  %36 = sub nsw i32 63, %35
  %37 = sext i32 %36 to i64
  %38 = getelementptr inbounds %union.av_intfloat32, ptr %34, i64 %37
  store i32 %33, ptr %38, align 4, !tbaa !32
  br label %39

39:                                               ; preds = %13
  %40 = load i32, ptr %7, align 4, !tbaa !23
  %41 = add nsw i32 %40, 1
  store i32 %41, ptr %7, align 4, !tbaa !23
  br label %10, !llvm.loop !36

42:                                               ; preds = %10
  call void @llvm.lifetime.end.p0(i64 4, ptr %7) #5
  call void @llvm.lifetime.end.p0(i64 8, ptr %6) #5
  call void @llvm.lifetime.end.p0(i64 8, ptr %5) #5
  ret void
}