; Function Attrs: nofree norecurse nosync nounwind memory(argmem: readwrite) uwtable
define internal void @sbr_qmf_deint_neg_c(ptr noundef writeonly captures(none) %0, ptr noundef readonly captures(none) %1) #1 {
  br label %3

3:                                                ; preds = %2, %3
  %indvars.iv = phi i64 [ 0, %2 ], [ %indvars.iv.next, %3 ]
  %4 = shl nuw nsw i64 %indvars.iv, 1
  %5 = sub nuw nsw i64 63, %4
  %6 = getelementptr inbounds nuw %union.av_intfloat32, ptr %1, i64 %5
  %7 = load i32, ptr %6, align 4, !tbaa !24
  %8 = getelementptr inbounds nuw %union.av_intfloat32, ptr %0, i64 %indvars.iv
  store i32 %7, ptr %8, align 4, !tbaa !24
  %9 = sub nuw nsw i64 62, %4
  %10 = getelementptr inbounds nuw %union.av_intfloat32, ptr %1, i64 %9
  %11 = load i32, ptr %10, align 4, !tbaa !24
  %12 = xor i32 %11, -2147483648
  %13 = sub nuw nsw i64 63, %indvars.iv
  %14 = getelementptr inbounds nuw %union.av_intfloat32, ptr %0, i64 %13
  store i32 %12, ptr %14, align 4, !tbaa !24
  %indvars.iv.next = add nuw nsw i64 %indvars.iv, 1
  %exitcond.not = icmp eq i64 %indvars.iv.next, 32
  br i1 %exitcond.not, label %15, label %3, !llvm.loop !28

15:                                               ; preds = %3
  ret void
}